; ModuleID = '57/2480.c'
source_filename = "57/2480.c"
target datalayout = "e-m:e-p270:32:32-p271:32:32-p272:64:64-i64:64-f80:128-n8:16:32:64-S128"
target triple = "x86_64-pc-linux-gnu"

@.str = private unnamed_addr constant [4 x i8] c"%d\0A\00", align 1
@.str.1 = private unnamed_addr constant [3 x i8] c"%s\00", align 1
@.str.2 = private unnamed_addr constant [4 x i8] c"%s\0A\00", align 1

; Function Attrs: noinline nounwind uwtable
define dso_local i32 @main() #0 {
  %1 = alloca i32, align 4
  %2 = alloca i32, align 4
  %3 = alloca i32, align 4
  %4 = alloca i32, align 4
  %5 = alloca [51 x [33 x i8]], align 16
  %6 = alloca [51 x i8], align 16
  store i32 0, i32* %1, align 4
  %7 = call i32 (i8*, ...) @__isoc99_scanf(i8* getelementptr inbounds ([4 x i8], [4 x i8]* @.str, i64 0, i64 0), i32* %2)
  store i32 0, i32* %3, align 4
  br label %8

8:                                                ; preds = %18, %0
  %9 = load i32, i32* %3, align 4
  %10 = load i32, i32* %2, align 4
  %11 = icmp slt i32 %9, %10
  br i1 %11, label %12, label %21

12:                                               ; preds = %8
  %13 = load i32, i32* %3, align 4
  %14 = sext i32 %13 to i64
  %15 = getelementptr inbounds [51 x [33 x i8]], [51 x [33 x i8]]* %5, i64 0, i64 %14
  %16 = getelementptr inbounds [33 x i8], [33 x i8]* %15, i64 0, i64 0
  %17 = call i32 (i8*, ...) @__isoc99_scanf(i8* getelementptr inbounds ([3 x i8], [3 x i8]* @.str.1, i64 0, i64 0), i8* %16)
  br label %18

18:                                               ; preds = %12
  %19 = load i32, i32* %3, align 4
  %20 = add nsw i32 %19, 1
  store i32 %20, i32* %3, align 4
  br label %8

21:                                               ; preds = %8
  store i32 0, i32* %3, align 4
  br label %22

22:                                               ; preds = %36, %21
  %23 = load i32, i32* %3, align 4
  %24 = load i32, i32* %2, align 4
  %25 = icmp slt i32 %23, %24
  br i1 %25, label %26, label %39

26:                                               ; preds = %22
  %27 = load i32, i32* %3, align 4
  %28 = sext i32 %27 to i64
  %29 = getelementptr inbounds [51 x [33 x i8]], [51 x [33 x i8]]* %5, i64 0, i64 %28
  %30 = getelementptr inbounds [33 x i8], [33 x i8]* %29, i64 0, i64 0
  %31 = call i64 @strlen(i8* %30) #3
  %32 = trunc i64 %31 to i8
  %33 = load i32, i32* %3, align 4
  %34 = sext i32 %33 to i64
  %35 = getelementptr inbounds [51 x i8], [51 x i8]* %6, i64 0, i64 %34
  store i8 %32, i8* %35, align 1
  br label %36

36:                                               ; preds = %26
  %37 = load i32, i32* %3, align 4
  %38 = add nsw i32 %37, 1
  store i32 %38, i32* %3, align 4
  br label %22

39:                                               ; preds = %22
  store i32 0, i32* %3, align 4
  br label %40

40:                                               ; preds = %128, %39
  %41 = load i32, i32* %3, align 4
  %42 = load i32, i32* %2, align 4
  %43 = icmp slt i32 %41, %42
  br i1 %43, label %44, label %131

44:                                               ; preds = %40
  %45 = load i32, i32* %3, align 4
  %46 = sext i32 %45 to i64
  %47 = getelementptr inbounds [51 x [33 x i8]], [51 x [33 x i8]]* %5, i64 0, i64 %46
  %48 = load i32, i32* %3, align 4
  %49 = sext i32 %48 to i64
  %50 = getelementptr inbounds [51 x i8], [51 x i8]* %6, i64 0, i64 %49
  %51 = load i8, i8* %50, align 1
  %52 = sext i8 %51 to i32
  %53 = sub nsw i32 %52, 1
  %54 = sext i32 %53 to i64
  %55 = getelementptr inbounds [33 x i8], [33 x i8]* %47, i64 0, i64 %54
  %56 = load i8, i8* %55, align 1
  %57 = sext i8 %56 to i32
  %58 = icmp eq i32 %57, 114
  br i1 %58, label %59, label %71

59:                                               ; preds = %44
  %60 = load i32, i32* %3, align 4
  %61 = sext i32 %60 to i64
  %62 = getelementptr inbounds [51 x [33 x i8]], [51 x [33 x i8]]* %5, i64 0, i64 %61
  %63 = load i32, i32* %3, align 4
  %64 = sext i32 %63 to i64
  %65 = getelementptr inbounds [51 x i8], [51 x i8]* %6, i64 0, i64 %64
  %66 = load i8, i8* %65, align 1
  %67 = sext i8 %66 to i32
  %68 = sub nsw i32 %67, 2
  %69 = sext i32 %68 to i64
  %70 = getelementptr inbounds [33 x i8], [33 x i8]* %62, i64 0, i64 %69
  store i8 0, i8* %70, align 1
  br label %127

71:                                               ; preds = %44
  %72 = load i32, i32* %3, align 4
  %73 = sext i32 %72 to i64
  %74 = getelementptr inbounds [51 x [33 x i8]], [51 x [33 x i8]]* %5, i64 0, i64 %73
  %75 = load i32, i32* %3, align 4
  %76 = sext i32 %75 to i64
  %77 = getelementptr inbounds [51 x i8], [51 x i8]* %6, i64 0, i64 %76
  %78 = load i8, i8* %77, align 1
  %79 = sext i8 %78 to i32
  %80 = sub nsw i32 %79, 1
  %81 = sext i32 %80 to i64
  %82 = getelementptr inbounds [33 x i8], [33 x i8]* %74, i64 0, i64 %81
  %83 = load i8, i8* %82, align 1
  %84 = sext i8 %83 to i32
  %85 = icmp eq i32 %84, 121
  br i1 %85, label %86, label %98

86:                                               ; preds = %71
  %87 = load i32, i32* %3, align 4
  %88 = sext i32 %87 to i64
  %89 = getelementptr inbounds [51 x [33 x i8]], [51 x [33 x i8]]* %5, i64 0, i64 %88
  %90 = load i32, i32* %3, align 4
  %91 = sext i32 %90 to i64
  %92 = getelementptr inbounds [51 x i8], [51 x i8]* %6, i64 0, i64 %91
  %93 = load i8, i8* %92, align 1
  %94 = sext i8 %93 to i32
  %95 = sub nsw i32 %94, 2
  %96 = sext i32 %95 to i64
  %97 = getelementptr inbounds [33 x i8], [33 x i8]* %89, i64 0, i64 %96
  store i8 0, i8* %97, align 1
  br label %126

98:                                               ; preds = %71
  %99 = load i32, i32* %3, align 4
  %100 = sext i32 %99 to i64
  %101 = getelementptr inbounds [51 x [33 x i8]], [51 x [33 x i8]]* %5, i64 0, i64 %100
  %102 = load i32, i32* %3, align 4
  %103 = sext i32 %102 to i64
  %104 = getelementptr inbounds [51 x i8], [51 x i8]* %6, i64 0, i64 %103
  %105 = load i8, i8* %104, align 1
  %106 = sext i8 %105 to i32
  %107 = sub nsw i32 %106, 1
  %108 = sext i32 %107 to i64
  %109 = getelementptr inbounds [33 x i8], [33 x i8]* %101, i64 0, i64 %108
  %110 = load i8, i8* %109, align 1
  %111 = sext i8 %110 to i32
  %112 = icmp eq i32 %111, 103
  br i1 %112, label %113, label %125

113:                                              ; preds = %98
  %114 = load i32, i32* %3, align 4
  %115 = sext i32 %114 to i64
  %116 = getelementptr inbounds [51 x [33 x i8]], [51 x [33 x i8]]* %5, i64 0, i64 %115
  %117 = load i32, i32* %3, align 4
  %118 = sext i32 %117 to i64
  %119 = getelementptr inbounds [51 x i8], [51 x i8]* %6, i64 0, i64 %118
  %120 = load i8, i8* %119, align 1
  %121 = sext i8 %120 to i32
  %122 = sub nsw i32 %121, 3
  %123 = sext i32 %122 to i64
  %124 = getelementptr inbounds [33 x i8], [33 x i8]* %116, i64 0, i64 %123
  store i8 0, i8* %124, align 1
  br label %125

125:                                              ; preds = %113, %98
  br label %126

126:                                              ; preds = %125, %86
  br label %127

127:                                              ; preds = %126, %59
  br label %128

128:                                              ; preds = %127
  %129 = load i32, i32* %3, align 4
  %130 = add nsw i32 %129, 1
  store i32 %130, i32* %3, align 4
  br label %40

131:                                              ; preds = %40
  store i32 0, i32* %3, align 4
  br label %132

132:                                              ; preds = %142, %131
  %133 = load i32, i32* %3, align 4
  %134 = load i32, i32* %2, align 4
  %135 = icmp slt i32 %133, %134
  br i1 %135, label %136, label %145

136:                                              ; preds = %132
  %137 = load i32, i32* %3, align 4
  %138 = sext i32 %137 to i64
  %139 = getelementptr inbounds [51 x [33 x i8]], [51 x [33 x i8]]* %5, i64 0, i64 %138
  %140 = getelementptr inbounds [33 x i8], [33 x i8]* %139, i64 0, i64 0
  %141 = call i32 (i8*, ...) @printf(i8* getelementptr inbounds ([4 x i8], [4 x i8]* @.str.2, i64 0, i64 0), i8* %140)
  br label %142

142:                                              ; preds = %136
  %143 = load i32, i32* %3, align 4
  %144 = add nsw i32 %143, 1
  store i32 %144, i32* %3, align 4
  br label %132

145:                                              ; preds = %132
  ret i32 0
}

declare dso_local i32 @__isoc99_scanf(i8*, ...) #1

; Function Attrs: nounwind readonly
declare dso_local i64 @strlen(i8*) #2

declare dso_local i32 @printf(i8*, ...) #1


!llvm.module.flags = !{!0}
!llvm.ident = !{!1}

!0 = !{i32 1, !"wchar_size", i32 4}
!1 = !{!"clang version 10.0.0-4ubuntu1 "}
